; Function Attrs: noreturn nounwind uwtable
define internal void @bail_out(i1 noundef zeroext %0, ptr noundef %1, ...) unnamed_addr #4 {
  %3 = alloca [1 x %struct.__va_list_tag], align 16
  call void @llvm.lifetime.start.p0(i64 24, ptr nonnull %3) #22
  call void @llvm.va_start.p0(ptr nonnull %3)
  call fastcc void @emit_tap_output_v(i32 noundef 1, ptr noundef %1, ptr noundef %3)
  call void @llvm.va_end.p0(ptr nonnull %3)
  br i1 %0, label %4, label %5

4:                                                ; preds = %2
  call void @_exit(i32 noundef 2) #23
  unreachable

5:                                                ; preds = %2
  call void @exit(i32 noundef 2) #24
  unreachable
}